target datalayout = "e-m:e-p270:32:32-p271:32:32-p272:64:64-i64:64-i128:128-f80:128-n8:16:32:64-S128"
target triple = "x86_64-pc-linux-gnu"

%struct.AVFilterContext = type { ptr, ptr, ptr, ptr, ptr, i32, ptr, ptr, i32, ptr, ptr, i32, i32, ptr, ptr, ptr, ptr, i32, ptr, i32, i32 }
%struct.FFTFILTContext = type { ptr, i32, i32, i32, i32, [4 x i32], [4 x i32], [32 x [4 x ptr]], [32 x [4 x ptr]], [32 x [4 x ptr]], [32 x [4 x ptr]], ptr, ptr, ptr, ptr, [4 x i32], [4 x i32], [4 x i64], [4 x i64], [4 x i64], [4 x i64], [4 x ptr], [4 x ptr], [4 x ptr], [4 x ptr], [4 x i32], [4 x ptr], [4 x ptr], [4 x ptr], ptr, ptr }
%struct.AVChannelLayout = type { i32, i32, %union.anon.1, ptr }
%union.anon.1 = type { i64 }
%struct.AVRational = type { i32, i32 }
%struct.AVFrame = type { [8 x ptr], [8 x i32], ptr, i32, i32, i32, i32, i32, %struct.AVRational, i64, i64, %struct.AVRational, i32, ptr, i32, i32, [8 x ptr], ptr, i32, ptr, i32, i32, i32, i32, i32, i32, i32, i64, ptr, i32, ptr, ptr, i64, i64, i64, i64, ptr, %struct.AVChannelLayout, i64 }

; Function Attrs: alwaysinline nounwind willreturn memory(none) uwtable
define internal zeroext i8 @av_clip_uint8_c(i32 noundef %0) #7 {
  %2 = alloca i8, align 1
  %3 = alloca i32, align 4
  store i32 %0, ptr %3, align 4, !tbaa !24
  %4 = load i32, ptr %3, align 4, !tbaa !24
  %5 = and i32 %4, -256
  %6 = icmp ne i32 %5, 0
  br i1 %6, label %7, label %12

7:                                                ; preds = %1
  %8 = load i32, ptr %3, align 4, !tbaa !24
  %9 = xor i32 %8, -1
  %10 = ashr i32 %9, 31
  %11 = trunc i32 %10 to i8
  store i8 %11, ptr %2, align 1
  br label %15

12:                                               ; preds = %1
  %13 = load i32, ptr %3, align 4, !tbaa !24
  %14 = trunc i32 %13 to i8
  store i8 %14, ptr %2, align 1
  br label %15

15:                                               ; preds = %12, %7
  %16 = load i8, ptr %2, align 1
  ret i8 %16
}

; Function Attrs: nounwind uwtable
define internal i32 @irdft_horizontal8(ptr noundef %0, ptr noundef %1, i32 noundef %2, i32 noundef %3) #1 {
  %5 = alloca ptr, align 8
  %6 = alloca ptr, align 8
  %7 = alloca i32, align 4
  %8 = alloca i32, align 4
  %9 = alloca ptr, align 8
  %10 = alloca ptr, align 8
  %11 = alloca i32, align 4
  %12 = alloca i32, align 4
  %13 = alloca i32, align 4
  %14 = alloca i32, align 4
  %15 = alloca i32, align 4
  %16 = alloca i32, align 4
  %17 = alloca i32, align 4
  %18 = alloca i32, align 4
  %19 = alloca float, align 4
  %20 = alloca ptr, align 8
  %21 = alloca ptr, align 8
  %22 = alloca i32, align 4
  store ptr %0, ptr %5, align 8, !tbaa !4
  store ptr %1, ptr %6, align 8, !tbaa !26
  store i32 %2, ptr %7, align 4, !tbaa !24
  store i32 %3, ptr %8, align 4, !tbaa !24
  call void @llvm.lifetime.start.p0(i64 8, ptr %9) #10
  %23 = load ptr, ptr %5, align 8, !tbaa !4
  %24 = getelementptr inbounds nuw %struct.AVFilterContext, ptr %23, i32 0, i32 9
  %25 = load ptr, ptr %24, align 8, !tbaa !9
  store ptr %25, ptr %9, align 8, !tbaa !22
  call void @llvm.lifetime.start.p0(i64 8, ptr %10) #10
  %26 = load ptr, ptr %6, align 8, !tbaa !26
  store ptr %26, ptr %10, align 8, !tbaa !37
  call void @llvm.lifetime.start.p0(i64 4, ptr %11) #10
  store i32 0, ptr %11, align 4, !tbaa !24
  br label %27

27:                                               ; preds = %195, %4
  %28 = load i32, ptr %11, align 4, !tbaa !24
  %29 = load ptr, ptr %9, align 8, !tbaa !22
  %30 = getelementptr inbounds nuw %struct.FFTFILTContext, ptr %29, i32 0, i32 3
  %31 = load i32, ptr %30, align 8, !tbaa !51
  %32 = icmp slt i32 %28, %31
  br i1 %32, label %34, label %33

33:                                               ; preds = %27
  store i32 2, ptr %12, align 4
  call void @llvm.lifetime.end.p0(i64 4, ptr %11) #10
  br label %198

34:                                               ; preds = %27
  call void @llvm.lifetime.start.p0(i64 4, ptr %13) #10
  %35 = load ptr, ptr %9, align 8, !tbaa !22
  %36 = getelementptr inbounds nuw %struct.FFTFILTContext, ptr %35, i32 0, i32 5
  %37 = load i32, ptr %11, align 4, !tbaa !24
  %38 = sext i32 %37 to i64
  %39 = getelementptr inbounds [4 x i32], ptr %36, i64 0, i64 %38
  %40 = load i32, ptr %39, align 4, !tbaa !24
  store i32 %40, ptr %13, align 4, !tbaa !24
  call void @llvm.lifetime.start.p0(i64 4, ptr %14) #10
  %41 = load ptr, ptr %9, align 8, !tbaa !22
  %42 = getelementptr inbounds nuw %struct.FFTFILTContext, ptr %41, i32 0, i32 6
  %43 = load i32, ptr %11, align 4, !tbaa !24
  %44 = sext i32 %43 to i64
  %45 = getelementptr inbounds [4 x i32], ptr %42, i64 0, i64 %44
  %46 = load i32, ptr %45, align 4, !tbaa !24
  store i32 %46, ptr %14, align 4, !tbaa !24
  call void @llvm.lifetime.start.p0(i64 4, ptr %15) #10
  %47 = load i32, ptr %14, align 4, !tbaa !24
  %48 = load i32, ptr %7, align 4, !tbaa !24
  %49 = mul nsw i32 %47, %48
  %50 = load i32, ptr %8, align 4, !tbaa !24
  %51 = sdiv i32 %49, %50
  store i32 %51, ptr %15, align 4, !tbaa !24
  call void @llvm.lifetime.start.p0(i64 4, ptr %16) #10
  %52 = load i32, ptr %14, align 4, !tbaa !24
  %53 = load i32, ptr %7, align 4, !tbaa !24
  %54 = add nsw i32 %53, 1
  %55 = mul nsw i32 %52, %54
  %56 = load i32, ptr %8, align 4, !tbaa !24
  %57 = sdiv i32 %55, %56
  store i32 %57, ptr %16, align 4, !tbaa !24
  call void @llvm.lifetime.start.p0(i64 4, ptr %17) #10
  %58 = load i32, ptr %15, align 4, !tbaa !24
  store i32 %58, ptr %17, align 4, !tbaa !24
  br label %59

59:                                               ; preds = %109, %34
  %60 = load i32, ptr %17, align 4, !tbaa !24
  %61 = load i32, ptr %16, align 4, !tbaa !24
  %62 = icmp slt i32 %60, %61
  br i1 %62, label %64, label %63

63:                                               ; preds = %59
  store i32 5, ptr %12, align 4
  call void @llvm.lifetime.end.p0(i64 4, ptr %17) #10
  br label %112

64:                                               ; preds = %59
  %65 = load ptr, ptr %9, align 8, !tbaa !22
  %66 = getelementptr inbounds nuw %struct.FFTFILTContext, ptr %65, i32 0, i32 12
  %67 = load ptr, ptr %66, align 8, !tbaa !111
  %68 = load ptr, ptr %9, align 8, !tbaa !22
  %69 = getelementptr inbounds nuw %struct.FFTFILTContext, ptr %68, i32 0, i32 9
  %70 = load i32, ptr %7, align 4, !tbaa !24
  %71 = sext i32 %70 to i64
  %72 = getelementptr inbounds [32 x [4 x ptr]], ptr %69, i64 0, i64 %71
  %73 = load i32, ptr %11, align 4, !tbaa !24
  %74 = sext i32 %73 to i64
  %75 = getelementptr inbounds [4 x ptr], ptr %72, i64 0, i64 %74
  %76 = load ptr, ptr %75, align 8, !tbaa !81
  %77 = load ptr, ptr %9, align 8, !tbaa !22
  %78 = getelementptr inbounds nuw %struct.FFTFILTContext, ptr %77, i32 0, i32 23
  %79 = load i32, ptr %11, align 4, !tbaa !24
  %80 = sext i32 %79 to i64
  %81 = getelementptr inbounds [4 x ptr], ptr %78, i64 0, i64 %80
  %82 = load ptr, ptr %81, align 8, !tbaa !57
  %83 = load i32, ptr %17, align 4, !tbaa !24
  %84 = sext i32 %83 to i64
  %85 = load ptr, ptr %9, align 8, !tbaa !22
  %86 = getelementptr inbounds nuw %struct.FFTFILTContext, ptr %85, i32 0, i32 17
  %87 = load i32, ptr %11, align 4, !tbaa !24
  %88 = sext i32 %87 to i64
  %89 = getelementptr inbounds [4 x i64], ptr %86, i64 0, i64 %88
  %90 = load i64, ptr %89, align 8, !tbaa !54
  %91 = mul i64 %84, %90
  %92 = getelementptr inbounds nuw float, ptr %82, i64 %91
  %93 = load ptr, ptr %9, align 8, !tbaa !22
  %94 = getelementptr inbounds nuw %struct.FFTFILTContext, ptr %93, i32 0, i32 21
  %95 = load i32, ptr %11, align 4, !tbaa !24
  %96 = sext i32 %95 to i64
  %97 = getelementptr inbounds [4 x ptr], ptr %94, i64 0, i64 %96
  %98 = load ptr, ptr %97, align 8, !tbaa !57
  %99 = load i32, ptr %17, align 4, !tbaa !24
  %100 = sext i32 %99 to i64
  %101 = load ptr, ptr %9, align 8, !tbaa !22
  %102 = getelementptr inbounds nuw %struct.FFTFILTContext, ptr %101, i32 0, i32 17
  %103 = load i32, ptr %11, align 4, !tbaa !24
  %104 = sext i32 %103 to i64
  %105 = getelementptr inbounds [4 x i64], ptr %102, i64 0, i64 %104
  %106 = load i64, ptr %105, align 8, !tbaa !54
  %107 = mul i64 %100, %106
  %108 = getelementptr inbounds nuw float, ptr %98, i64 %107
  call void %67(ptr noundef %76, ptr noundef %92, ptr noundef %108, i64 noundef 8)
  br label %109

109:                                              ; preds = %64
  %110 = load i32, ptr %17, align 4, !tbaa !24
  %111 = add nsw i32 %110, 1
  store i32 %111, ptr %17, align 4, !tbaa !24
  br label %59, !llvm.loop !112

112:                                              ; preds = %63
  call void @llvm.lifetime.start.p0(i64 4, ptr %18) #10
  %113 = load i32, ptr %15, align 4, !tbaa !24
  store i32 %113, ptr %18, align 4, !tbaa !24
  br label %114

114:                                              ; preds = %191, %112
  %115 = load i32, ptr %18, align 4, !tbaa !24
  %116 = load i32, ptr %16, align 4, !tbaa !24
  %117 = icmp slt i32 %115, %116
  br i1 %117, label %119, label %118

118:                                              ; preds = %114
  store i32 8, ptr %12, align 4
  call void @llvm.lifetime.end.p0(i64 4, ptr %18) #10
  br label %194

119:                                              ; preds = %114
  call void @llvm.lifetime.start.p0(i64 4, ptr %19) #10
  %120 = load ptr, ptr %9, align 8, !tbaa !22
  %121 = getelementptr inbounds nuw %struct.FFTFILTContext, ptr %120, i32 0, i32 19
  %122 = load i32, ptr %11, align 4, !tbaa !24
  %123 = sext i32 %122 to i64
  %124 = getelementptr inbounds [4 x i64], ptr %121, i64 0, i64 %123
  %125 = load i64, ptr %124, align 8, !tbaa !54
  %126 = load ptr, ptr %9, align 8, !tbaa !22
  %127 = getelementptr inbounds nuw %struct.FFTFILTContext, ptr %126, i32 0, i32 20
  %128 = load i32, ptr %11, align 4, !tbaa !24
  %129 = sext i32 %128 to i64
  %130 = getelementptr inbounds [4 x i64], ptr %127, i64 0, i64 %129
  %131 = load i64, ptr %130, align 8, !tbaa !54
  %132 = mul i64 %125, %131
  %133 = uitofp i64 %132 to float
  %134 = fdiv nsz float 1.000000e+00, %133
  store float %134, ptr %19, align 4, !tbaa !59
  call void @llvm.lifetime.start.p0(i64 8, ptr %20) #10
  %135 = load ptr, ptr %9, align 8, !tbaa !22
  %136 = getelementptr inbounds nuw %struct.FFTFILTContext, ptr %135, i32 0, i32 23
  %137 = load i32, ptr %11, align 4, !tbaa !24
  %138 = sext i32 %137 to i64
  %139 = getelementptr inbounds [4 x ptr], ptr %136, i64 0, i64 %138
  %140 = load ptr, ptr %139, align 8, !tbaa !57
  %141 = load i32, ptr %18, align 4, !tbaa !24
  %142 = sext i32 %141 to i64
  %143 = load ptr, ptr %9, align 8, !tbaa !22
  %144 = getelementptr inbounds nuw %struct.FFTFILTContext, ptr %143, i32 0, i32 17
  %145 = load i32, ptr %11, align 4, !tbaa !24
  %146 = sext i32 %145 to i64
  %147 = getelementptr inbounds [4 x i64], ptr %144, i64 0, i64 %146
  %148 = load i64, ptr %147, align 8, !tbaa !54
  %149 = mul i64 %142, %148
  %150 = getelementptr inbounds nuw float, ptr %140, i64 %149
  store ptr %150, ptr %20, align 8, !tbaa !57
  call void @llvm.lifetime.start.p0(i64 8, ptr %21) #10
  %151 = load ptr, ptr %10, align 8, !tbaa !37
  %152 = getelementptr inbounds nuw %struct.AVFrame, ptr %151, i32 0, i32 0
  %153 = load i32, ptr %11, align 4, !tbaa !24
  %154 = sext i32 %153 to i64
  %155 = getelementptr inbounds [8 x ptr], ptr %152, i64 0, i64 %154
  %156 = load ptr, ptr %155, align 8, !tbaa !25
  %157 = load i32, ptr %18, align 4, !tbaa !24
  %158 = load ptr, ptr %10, align 8, !tbaa !37
  %159 = getelementptr inbounds nuw %struct.AVFrame, ptr %158, i32 0, i32 1
  %160 = load i32, ptr %11, align 4, !tbaa !24
  %161 = sext i32 %160 to i64
  %162 = getelementptr inbounds [8 x i32], ptr %159, i64 0, i64 %161
  %163 = load i32, ptr %162, align 4, !tbaa !24
  %164 = mul nsw i32 %157, %163
  %165 = sext i32 %164 to i64
  %166 = getelementptr inbounds i8, ptr %156, i64 %165
  store ptr %166, ptr %21, align 8, !tbaa !25
  call void @llvm.lifetime.start.p0(i64 4, ptr %22) #10
  store i32 0, ptr %22, align 4, !tbaa !24
  br label %167

167:                                              ; preds = %187, %119
  %168 = load i32, ptr %22, align 4, !tbaa !24
  %169 = load i32, ptr %13, align 4, !tbaa !24
  %170 = icmp slt i32 %168, %169
  br i1 %170, label %172, label %171

171:                                              ; preds = %167
  store i32 11, ptr %12, align 4
  call void @llvm.lifetime.end.p0(i64 4, ptr %22) #10
  br label %190

172:                                              ; preds = %167
  %173 = load ptr, ptr %20, align 8, !tbaa !57
  %174 = load i32, ptr %22, align 4, !tbaa !24
  %175 = sext i32 %174 to i64
  %176 = getelementptr inbounds float, ptr %173, i64 %175
  %177 = load float, ptr %176, align 4, !tbaa !59
  %178 = load float, ptr %19, align 4, !tbaa !59
  %179 = fmul nsz float %177, %178
  %180 = call i64 @llvm.lrint.i64.f32(float %179)
  %181 = trunc i64 %180 to i32
  %182 = call zeroext i8 @av_clip_uint8_c(i32 noundef %181) #12
  %183 = load ptr, ptr %21, align 8, !tbaa !25
  %184 = load i32, ptr %22, align 4, !tbaa !24
  %185 = sext i32 %184 to i64
  %186 = getelementptr inbounds i8, ptr %183, i64 %185
  store i8 %182, ptr %186, align 1, !tbaa !105
  br label %187

187:                                              ; preds = %172
  %188 = load i32, ptr %22, align 4, !tbaa !24
  %189 = add nsw i32 %188, 1
  store i32 %189, ptr %22, align 4, !tbaa !24
  br label %167, !llvm.loop !113

190:                                              ; preds = %171
  call void @llvm.lifetime.end.p0(i64 8, ptr %21) #10
  call void @llvm.lifetime.end.p0(i64 8, ptr %20) #10
  call void @llvm.lifetime.end.p0(i64 4, ptr %19) #10
  br label %191

191:                                              ; preds = %190
  %192 = load i32, ptr %18, align 4, !tbaa !24
  %193 = add nsw i32 %192, 1
  store i32 %193, ptr %18, align 4, !tbaa !24
  br label %114, !llvm.loop !114

194:                                              ; preds = %118
  call void @llvm.lifetime.end.p0(i64 4, ptr %16) #10
  call void @llvm.lifetime.end.p0(i64 4, ptr %15) #10
  call void @llvm.lifetime.end.p0(i64 4, ptr %14) #10
  call void @llvm.lifetime.end.p0(i64 4, ptr %13) #10
  br label %195

195:                                              ; preds = %194
  %196 = load i32, ptr %11, align 4, !tbaa !24
  %197 = add nsw i32 %196, 1
  store i32 %197, ptr %11, align 4, !tbaa !24
  br label %27, !llvm.loop !115

198:                                              ; preds = %33
  store i32 1, ptr %12, align 4
  call void @llvm.lifetime.end.p0(i64 8, ptr %10) #10
  call void @llvm.lifetime.end.p0(i64 8, ptr %9) #10
  ret i32 0
}