; Function Attrs: nounwind uwtable
define internal noundef i32 @irdft_horizontal8(ptr noundef readonly captures(none) %0, ptr noundef readonly captures(none) %1, i32 noundef %2, i32 noundef %3) #1 {
  %5 = getelementptr inbounds nuw i8, ptr %0, i64 72
  %6 = load ptr, ptr %5, align 8, !tbaa !4
  %7 = getelementptr inbounds nuw i8, ptr %6, i64 16
  %8 = load i32, ptr %7, align 8, !tbaa !48
  %9 = icmp sgt i32 %8, 0
  br i1 %9, label %.lr.ph69, label %._crit_edge

.lr.ph69:                                         ; preds = %4
  %10 = getelementptr inbounds nuw i8, ptr %6, i64 24
  %11 = getelementptr inbounds nuw i8, ptr %6, i64 40
  %12 = add nsw i32 %2, 1
  %13 = getelementptr inbounds nuw i8, ptr %6, i64 4160
  %14 = getelementptr inbounds nuw i8, ptr %6, i64 2104
  %15 = sext i32 %2 to i64
  %16 = getelementptr inbounds nuw i8, ptr %6, i64 4408
  %17 = getelementptr inbounds nuw i8, ptr %6, i64 4216
  %18 = getelementptr inbounds nuw i8, ptr %6, i64 4344
  %19 = getelementptr inbounds nuw i8, ptr %6, i64 4280
  %20 = getelementptr inbounds nuw i8, ptr %6, i64 4312
  %21 = getelementptr inbounds nuw i8, ptr %1, i64 64
  br label %22

._crit_edge:                                      ; preds = %._crit_edge67, %4
  ret i32 0

22:                                               ; preds = %.lr.ph69, %._crit_edge67
  %indvars.iv81 = phi i64 [ 0, %.lr.ph69 ], [ %indvars.iv.next82, %._crit_edge67 ]
  %23 = getelementptr inbounds nuw [4 x i32], ptr %10, i64 0, i64 %indvars.iv81
  %24 = load i32, ptr %23, align 4, !tbaa !20
  %25 = getelementptr inbounds nuw [4 x i32], ptr %11, i64 0, i64 %indvars.iv81
  %26 = load i32, ptr %25, align 4, !tbaa !20
  %27 = mul nsw i32 %26, %2
  %28 = sdiv i32 %27, %3
  %29 = mul nsw i32 %26, %12
  %30 = sdiv i32 %29, %3
  %31 = icmp slt i32 %28, %30
  br i1 %31, label %.lr.ph, label %._crit_edge67

.lr.ph:                                           ; preds = %22
  %32 = getelementptr inbounds [32 x [4 x ptr]], ptr %14, i64 0, i64 %15, i64 %indvars.iv81
  %33 = getelementptr inbounds nuw [4 x ptr], ptr %16, i64 0, i64 %indvars.iv81
  %34 = getelementptr inbounds nuw [4 x i64], ptr %17, i64 0, i64 %indvars.iv81
  %35 = getelementptr inbounds nuw [4 x ptr], ptr %18, i64 0, i64 %indvars.iv81
  %36 = sext i32 %28 to i64
  br label %68

.lr.ph66:                                         ; preds = %68
  %37 = getelementptr inbounds nuw [4 x i64], ptr %19, i64 0, i64 %indvars.iv81
  %38 = getelementptr inbounds nuw [4 x i64], ptr %20, i64 0, i64 %indvars.iv81
  %39 = getelementptr inbounds nuw [4 x ptr], ptr %16, i64 0, i64 %indvars.iv81
  %40 = getelementptr inbounds nuw [4 x i64], ptr %17, i64 0, i64 %indvars.iv81
  %41 = getelementptr inbounds nuw [8 x ptr], ptr %1, i64 0, i64 %indvars.iv81
  %42 = getelementptr inbounds nuw [8 x i32], ptr %21, i64 0, i64 %indvars.iv81
  %43 = icmp sgt i32 %24, 0
  br i1 %43, label %.lr.ph64.us.preheader, label %._crit_edge67

.lr.ph64.us.preheader:                            ; preds = %.lr.ph66
  %44 = sext i32 %28 to i64
  %wide.trip.count79 = sext i32 %30 to i64
  %wide.trip.count = zext nneg i32 %24 to i64
  br label %.lr.ph64.us

.lr.ph64.us:                                      ; preds = %.lr.ph64.us.preheader, %._crit_edge.us
  %indvars.iv76 = phi i64 [ %44, %.lr.ph64.us.preheader ], [ %indvars.iv.next77, %._crit_edge.us ]
  %45 = load i64, ptr %37, align 8, !tbaa !56
  %46 = load i64, ptr %38, align 8, !tbaa !56
  %47 = mul i64 %46, %45
  %48 = uitofp i64 %47 to float
  %49 = fdiv nsz float 1.000000e+00, %48
  %50 = load ptr, ptr %39, align 8, !tbaa !63
  %51 = load i64, ptr %40, align 8, !tbaa !56
  %52 = mul i64 %51, %indvars.iv76
  %53 = getelementptr inbounds nuw float, ptr %50, i64 %52
  %54 = load ptr, ptr %41, align 8, !tbaa !21
  %55 = load i32, ptr %42, align 4, !tbaa !20
  %56 = sext i32 %55 to i64
  %57 = mul nsw i64 %indvars.iv76, %56
  %58 = getelementptr inbounds i8, ptr %54, i64 %57
  br label %59

59:                                               ; preds = %.lr.ph64.us, %59
  %indvars.iv72 = phi i64 [ 0, %.lr.ph64.us ], [ %indvars.iv.next73, %59 ]
  %60 = getelementptr inbounds nuw float, ptr %53, i64 %indvars.iv72
  %61 = load float, ptr %60, align 4, !tbaa !65
  %62 = fmul nsz float %49, %61
  %63 = tail call i64 @llvm.lrint.i64.f32(float %62)
  %64 = trunc i64 %63 to i32
  %.not.i.us = icmp ult i32 %64, 256
  %isnotneg.i.us = icmp sgt i32 %64, -1
  %65 = sext i1 %isnotneg.i.us to i8
  %66 = trunc i64 %63 to i8
  %.0.i.us = select i1 %.not.i.us, i8 %66, i8 %65
  %67 = getelementptr inbounds nuw i8, ptr %58, i64 %indvars.iv72
  store i8 %.0.i.us, ptr %67, align 1, !tbaa !75
  %indvars.iv.next73 = add nuw nsw i64 %indvars.iv72, 1
  %exitcond75.not = icmp eq i64 %indvars.iv.next73, %wide.trip.count
  br i1 %exitcond75.not, label %._crit_edge.us, label %59, !llvm.loop !104

._crit_edge.us:                                   ; preds = %59
  %indvars.iv.next77 = add nsw i64 %indvars.iv76, 1
  %exitcond80.not = icmp eq i64 %indvars.iv.next77, %wide.trip.count79
  br i1 %exitcond80.not, label %._crit_edge67, label %.lr.ph64.us, !llvm.loop !105

68:                                               ; preds = %.lr.ph, %68
  %indvars.iv = phi i64 [ %36, %.lr.ph ], [ %indvars.iv.next, %68 ]
  %69 = load ptr, ptr %13, align 8, !tbaa !106
  %70 = load ptr, ptr %32, align 8, !tbaa !87
  %71 = load ptr, ptr %33, align 8, !tbaa !63
  %72 = load i64, ptr %34, align 8, !tbaa !56
  %73 = mul i64 %72, %indvars.iv
  %74 = getelementptr inbounds nuw float, ptr %71, i64 %73
  %75 = load ptr, ptr %35, align 8, !tbaa !63
  %76 = getelementptr inbounds nuw float, ptr %75, i64 %73
  tail call void %69(ptr noundef %70, ptr noundef %74, ptr noundef %76, i64 noundef 8) #10
  %indvars.iv.next = add nsw i64 %indvars.iv, 1
  %lftr.wideiv = trunc i64 %indvars.iv.next to i32
  %exitcond.not = icmp eq i32 %30, %lftr.wideiv
  br i1 %exitcond.not, label %.lr.ph66, label %68, !llvm.loop !107

._crit_edge67:                                    ; preds = %._crit_edge.us, %.lr.ph66, %22
  %indvars.iv.next82 = add nuw nsw i64 %indvars.iv81, 1
  %77 = load i32, ptr %7, align 8, !tbaa !48
  %78 = sext i32 %77 to i64
  %79 = icmp slt i64 %indvars.iv.next82, %78
  br i1 %79, label %22, label %._crit_edge, !llvm.loop !108
}